target datalayout = "e-m:e-p270:32:32-p271:32:32-p272:64:64-i64:64-i128:128-f80:128-n8:16:32:64-S128"
target triple = "x86_64-pc-linux-gnu"

%"class.std::__cxx11::basic_string" = type { %"struct.std::__cxx11::basic_string<char>::_Alloc_hider", i64, %union.anon }
%"struct.std::__cxx11::basic_string<char>::_Alloc_hider" = type { ptr }
%union.anon = type { i64, [8 x i8] }
%"class.std::allocator" = type { i8 }
%"class.cv::Mat" = type { i32, i32, i32, i32, ptr, ptr, ptr, ptr, ptr, ptr, %"struct.cv::MatSize", %"struct.cv::MatStep" }
%"struct.cv::MatSize" = type { ptr }
%"struct.cv::MatStep" = type { ptr, [2 x i64] }

@.str.1 = private unnamed_addr constant [138 x i8] c"generated/home/dtcxzyw/WorkSpace/Projects/compilers/llvm-opt-benchmark/bench/opencv/opencv/modules/objdetect/src/aruco/aruco_detector.cpp\00", align 1
@.str.55 = private unnamed_addr constant [79 x i8] c"markerSize > 0 && bits.cols == sizeWithBorders && bits.rows == sizeWithBorders\00", align 1
@__func__._ZN2cv5arucoL16_getBorderErrorsERKNS_3MatEii = private unnamed_addr constant [17 x i8] c"_getBorderErrors\00", align 1

; Function Attrs: mustprogress nounwind uwtable
define linkonce_odr hidden noundef ptr @_ZNK2cv3Mat3ptrIhEEPKT_i(ptr noundef nonnull align 8 dereferenceable(96) %0, i32 noundef %1) #6 comdat align 2 {
  %3 = alloca ptr, align 8
  %4 = alloca i32, align 4
  store ptr %0, ptr %3, align 8
  store i32 %1, ptr %4, align 4
  %5 = load ptr, ptr %3, align 8
  %6 = getelementptr inbounds %"class.cv::Mat", ptr %5, i32 0, i32 4
  %7 = load ptr, ptr %6, align 8
  %8 = getelementptr inbounds %"class.cv::Mat", ptr %5, i32 0, i32 11
  %9 = getelementptr inbounds %"struct.cv::MatStep", ptr %8, i32 0, i32 0
  %10 = load ptr, ptr %9, align 8
  %11 = getelementptr inbounds i64, ptr %10, i64 0
  %12 = load i64, ptr %11, align 8
  %13 = load i32, ptr %4, align 4
  %14 = sext i32 %13 to i64
  %15 = mul i64 %12, %14
  %16 = getelementptr inbounds i8, ptr %7, i64 %15
  ret ptr %16
}

; Function Attrs: mustprogress uwtable
define internal noundef i32 @_ZN2cv5arucoL16_getBorderErrorsERKNS_3MatEii(ptr noundef nonnull align 8 dereferenceable(96) %0, i32 noundef %1, i32 noundef %2) #4 personality ptr @__gxx_personality_v0 {
  %4 = alloca ptr, align 8
  %5 = alloca i32, align 4
  %6 = alloca i32, align 4
  %7 = alloca i32, align 4
  %8 = alloca %"class.std::__cxx11::basic_string", align 8
  %9 = alloca %"class.std::allocator", align 1
  %10 = alloca ptr, align 8
  %11 = alloca i32, align 4
  %12 = alloca i32, align 4
  %13 = alloca i32, align 4
  %14 = alloca i32, align 4
  %15 = alloca i32, align 4
  %16 = alloca i32, align 4
  store ptr %0, ptr %4, align 8
  store i32 %1, ptr %5, align 4
  store i32 %2, ptr %6, align 4
  %17 = load i32, ptr %5, align 4
  %18 = load i32, ptr %6, align 4
  %19 = mul nsw i32 2, %18
  %20 = add nsw i32 %17, %19
  store i32 %20, ptr %7, align 4
  br label %21

21:                                               ; preds = %3
  %22 = load i32, ptr %5, align 4
  %23 = icmp sgt i32 %22, 0
  br i1 %23, label %24, label %37

24:                                               ; preds = %21
  %25 = load ptr, ptr %4, align 8
  %26 = getelementptr inbounds %"class.cv::Mat", ptr %25, i32 0, i32 3
  %27 = load i32, ptr %26, align 4
  %28 = load i32, ptr %7, align 4
  %29 = icmp eq i32 %27, %28
  br i1 %29, label %30, label %37

30:                                               ; preds = %24
  %31 = load ptr, ptr %4, align 8
  %32 = getelementptr inbounds %"class.cv::Mat", ptr %31, i32 0, i32 2
  %33 = load i32, ptr %32, align 8
  %34 = load i32, ptr %7, align 4
  %35 = icmp eq i32 %33, %34
  br i1 %35, label %36, label %37

36:                                               ; preds = %30
  br label %49

37:                                               ; preds = %30, %24, %21
  call void @_ZNSaIcEC1Ev(ptr noundef nonnull align 1 dereferenceable(1) %9) #3
  invoke void @_ZNSt7__cxx1112basic_stringIcSt11char_traitsIcESaIcEEC1EPKcRKS3_(ptr noundef nonnull align 8 dereferenceable(32) %8, ptr noundef @.str.55, ptr noundef nonnull align 1 dereferenceable(1) %9)
          to label %38 unwind label %40

38:                                               ; preds = %37
  invoke void @_ZN2cv5errorEiRKNSt7__cxx1112basic_stringIcSt11char_traitsIcESaIcEEEPKcS9_i(i32 noundef -215, ptr noundef nonnull align 8 dereferenceable(32) %8, ptr noundef @__func__._ZN2cv5arucoL16_getBorderErrorsERKNS_3MatEii, ptr noundef @.str.1, i32 noundef 396) #19
          to label %39 unwind label %44

39:                                               ; preds = %38
  unreachable

40:                                               ; preds = %37
  %41 = landingpad { ptr, i32 }
          cleanup
  %42 = extractvalue { ptr, i32 } %41, 0
  store ptr %42, ptr %10, align 8
  %43 = extractvalue { ptr, i32 } %41, 1
  store i32 %43, ptr %11, align 4
  br label %48

44:                                               ; preds = %38
  %45 = landingpad { ptr, i32 }
          cleanup
  %46 = extractvalue { ptr, i32 } %45, 0
  store ptr %46, ptr %10, align 8
  %47 = extractvalue { ptr, i32 } %45, 1
  store i32 %47, ptr %11, align 4
  call void @_ZNSt7__cxx1112basic_stringIcSt11char_traitsIcESaIcEED1Ev(ptr noundef nonnull align 8 dereferenceable(32) %8) #3
  br label %48

48:                                               ; preds = %44, %40
  call void @_ZNSaIcED1Ev(ptr noundef nonnull align 1 dereferenceable(1) %9) #3
  br label %149

49:                                               ; preds = %36
  br label %50

50:                                               ; preds = %49
  store i32 0, ptr %12, align 4
  store i32 0, ptr %13, align 4
  br label %51

51:                                               ; preds = %94, %50
  %52 = load i32, ptr %13, align 4
  %53 = load i32, ptr %7, align 4
  %54 = icmp slt i32 %52, %53
  br i1 %54, label %55, label %97

55:                                               ; preds = %51
  store i32 0, ptr %14, align 4
  br label %56

56:                                               ; preds = %90, %55
  %57 = load i32, ptr %14, align 4
  %58 = load i32, ptr %6, align 4
  %59 = icmp slt i32 %57, %58
  br i1 %59, label %60, label %93

60:                                               ; preds = %56
  %61 = load ptr, ptr %4, align 8
  %62 = load i32, ptr %13, align 4
  %63 = call noundef ptr @_ZNK2cv3Mat3ptrIhEEPKT_i(ptr noundef nonnull align 8 dereferenceable(96) %61, i32 noundef %62)
  %64 = load i32, ptr %14, align 4
  %65 = sext i32 %64 to i64
  %66 = getelementptr inbounds i8, ptr %63, i64 %65
  %67 = load i8, ptr %66, align 1
  %68 = zext i8 %67 to i32
  %69 = icmp ne i32 %68, 0
  br i1 %69, label %70, label %73

70:                                               ; preds = %60
  %71 = load i32, ptr %12, align 4
  %72 = add nsw i32 %71, 1
  store i32 %72, ptr %12, align 4
  br label %73

73:                                               ; preds = %70, %60
  %74 = load ptr, ptr %4, align 8
  %75 = load i32, ptr %13, align 4
  %76 = call noundef ptr @_ZNK2cv3Mat3ptrIhEEPKT_i(ptr noundef nonnull align 8 dereferenceable(96) %74, i32 noundef %75)
  %77 = load i32, ptr %7, align 4
  %78 = sub nsw i32 %77, 1
  %79 = load i32, ptr %14, align 4
  %80 = sub nsw i32 %78, %79
  %81 = sext i32 %80 to i64
  %82 = getelementptr inbounds i8, ptr %76, i64 %81
  %83 = load i8, ptr %82, align 1
  %84 = zext i8 %83 to i32
  %85 = icmp ne i32 %84, 0
  br i1 %85, label %86, label %89

86:                                               ; preds = %73
  %87 = load i32, ptr %12, align 4
  %88 = add nsw i32 %87, 1
  store i32 %88, ptr %12, align 4
  br label %89

89:                                               ; preds = %86, %73
  br label %90

90:                                               ; preds = %89
  %91 = load i32, ptr %14, align 4
  %92 = add nsw i32 %91, 1
  store i32 %92, ptr %14, align 4
  br label %56, !llvm.loop !122

93:                                               ; preds = %56
  br label %94

94:                                               ; preds = %93
  %95 = load i32, ptr %13, align 4
  %96 = add nsw i32 %95, 1
  store i32 %96, ptr %13, align 4
  br label %51, !llvm.loop !123

97:                                               ; preds = %51
  %98 = load i32, ptr %6, align 4
  store i32 %98, ptr %15, align 4
  br label %99

99:                                               ; preds = %144, %97
  %100 = load i32, ptr %15, align 4
  %101 = load i32, ptr %7, align 4
  %102 = load i32, ptr %6, align 4
  %103 = sub nsw i32 %101, %102
  %104 = icmp slt i32 %100, %103
  br i1 %104, label %105, label %147

105:                                              ; preds = %99
  store i32 0, ptr %16, align 4
  br label %106

106:                                              ; preds = %140, %105
  %107 = load i32, ptr %16, align 4
  %108 = load i32, ptr %6, align 4
  %109 = icmp slt i32 %107, %108
  br i1 %109, label %110, label %143

110:                                              ; preds = %106
  %111 = load ptr, ptr %4, align 8
  %112 = load i32, ptr %16, align 4
  %113 = call noundef ptr @_ZNK2cv3Mat3ptrIhEEPKT_i(ptr noundef nonnull align 8 dereferenceable(96) %111, i32 noundef %112)
  %114 = load i32, ptr %15, align 4
  %115 = sext i32 %114 to i64
  %116 = getelementptr inbounds i8, ptr %113, i64 %115
  %117 = load i8, ptr %116, align 1
  %118 = zext i8 %117 to i32
  %119 = icmp ne i32 %118, 0
  br i1 %119, label %120, label %123

120:                                              ; preds = %110
  %121 = load i32, ptr %12, align 4
  %122 = add nsw i32 %121, 1
  store i32 %122, ptr %12, align 4
  br label %123

123:                                              ; preds = %120, %110
  %124 = load ptr, ptr %4, align 8
  %125 = load i32, ptr %7, align 4
  %126 = sub nsw i32 %125, 1
  %127 = load i32, ptr %16, align 4
  %128 = sub nsw i32 %126, %127
  %129 = call noundef ptr @_ZNK2cv3Mat3ptrIhEEPKT_i(ptr noundef nonnull align 8 dereferenceable(96) %124, i32 noundef %128)
  %130 = load i32, ptr %15, align 4
  %131 = sext i32 %130 to i64
  %132 = getelementptr inbounds i8, ptr %129, i64 %131
  %133 = load i8, ptr %132, align 1
  %134 = zext i8 %133 to i32
  %135 = icmp ne i32 %134, 0
  br i1 %135, label %136, label %139

136:                                              ; preds = %123
  %137 = load i32, ptr %12, align 4
  %138 = add nsw i32 %137, 1
  store i32 %138, ptr %12, align 4
  br label %139

139:                                              ; preds = %136, %123
  br label %140

140:                                              ; preds = %139
  %141 = load i32, ptr %16, align 4
  %142 = add nsw i32 %141, 1
  store i32 %142, ptr %16, align 4
  br label %106, !llvm.loop !124

143:                                              ; preds = %106
  br label %144

144:                                              ; preds = %143
  %145 = load i32, ptr %15, align 4
  %146 = add nsw i32 %145, 1
  store i32 %146, ptr %15, align 4
  br label %99, !llvm.loop !125

147:                                              ; preds = %99
  %148 = load i32, ptr %12, align 4
  ret i32 %148

149:                                              ; preds = %48
  %150 = load ptr, ptr %10, align 8
  %151 = load i32, ptr %11, align 4
  %152 = insertvalue { ptr, i32 } poison, ptr %150, 0
  %153 = insertvalue { ptr, i32 } %152, i32 %151, 1
  resume { ptr, i32 } %153
}