; Function Attrs: mustprogress uwtable
define internal fastcc noundef i32 @_ZN2cv5arucoL16_getBorderErrorsERKNS_3MatEii(ptr nocapture noundef nonnull readonly align 8 dereferenceable(96) %0, i32 noundef %1, i32 noundef %2) unnamed_addr #3 personality ptr @__gxx_personality_v0 {
  %4 = alloca %"class.std::__cxx11::basic_string", align 8
  %5 = alloca %"class.std::allocator", align 1
  %6 = shl i32 %2, 1
  %7 = add i32 %6, %1
  %8 = icmp sgt i32 %1, 0
  %9 = getelementptr inbounds i8, ptr %0, i64 12
  %10 = load i32, ptr %9, align 4
  %11 = icmp eq i32 %10, %7
  %or.cond = select i1 %8, i1 %11, i1 false
  %12 = getelementptr inbounds i8, ptr %0, i64 8
  %13 = load i32, ptr %12, align 8
  %14 = icmp eq i32 %13, %7
  %or.cond56 = select i1 %or.cond, i1 %14, i1 false
  br i1 %or.cond56, label %.preheader60, label %34

.preheader60:                                     ; preds = %3
  %15 = icmp sgt i32 %7, 0
  br i1 %15, label %.preheader59.lr.ph, label %.preheader58

.preheader59.lr.ph:                               ; preds = %.preheader60
  %16 = icmp sgt i32 %2, 0
  %17 = getelementptr inbounds i8, ptr %0, i64 16
  %18 = load ptr, ptr %17, align 8
  br i1 %16, label %.preheader59.lr.ph.split.us, label %.preheader58

.preheader59.lr.ph.split.us:                      ; preds = %.preheader59.lr.ph
  %19 = getelementptr inbounds i8, ptr %0, i64 72
  %20 = load ptr, ptr %19, align 8
  %21 = load i64, ptr %20, align 8
  %22 = zext nneg i32 %7 to i64
  %wide.trip.count83 = zext nneg i32 %7 to i64
  %wide.trip.count = zext nneg i32 %2 to i64
  br label %.preheader59.us

.preheader59.us:                                  ; preds = %._crit_edge.us, %.preheader59.lr.ph.split.us
  %indvars.iv80 = phi i64 [ %indvars.iv.next81, %._crit_edge.us ], [ 0, %.preheader59.lr.ph.split.us ]
  %.04463.us = phi i32 [ %.3.us, %._crit_edge.us ], [ 0, %.preheader59.lr.ph.split.us ]
  %23 = mul i64 %21, %indvars.iv80
  %24 = getelementptr inbounds i8, ptr %18, i64 %23
  %25 = getelementptr i8, ptr %24, i64 %22
  br label %26

26:                                               ; preds = %.preheader59.us, %26
  %indvars.iv = phi i64 [ 0, %.preheader59.us ], [ %indvars.iv.next, %26 ]
  %.161.us = phi i32 [ %.04463.us, %.preheader59.us ], [ %.3.us, %26 ]
  %27 = getelementptr inbounds i8, ptr %24, i64 %indvars.iv
  %28 = load i8, ptr %27, align 1
  %.not50.us = icmp ne i8 %28, 0
  %29 = zext i1 %.not50.us to i32
  %spec.select.us = add nsw i32 %.161.us, %29
  %30 = xor i64 %indvars.iv, -1
  %31 = getelementptr i8, ptr %25, i64 %30
  %32 = load i8, ptr %31, align 1
  %.not51.us = icmp ne i8 %32, 0
  %33 = zext i1 %.not51.us to i32
  %.3.us = add nsw i32 %spec.select.us, %33
  %indvars.iv.next = add nuw nsw i64 %indvars.iv, 1
  %exitcond.not = icmp eq i64 %indvars.iv.next, %wide.trip.count
  br i1 %exitcond.not, label %._crit_edge.us, label %26, !llvm.loop !278

._crit_edge.us:                                   ; preds = %26
  %indvars.iv.next81 = add nuw nsw i64 %indvars.iv80, 1
  %exitcond84.not = icmp eq i64 %indvars.iv.next81, %wide.trip.count83
  br i1 %exitcond84.not, label %.preheader58, label %.preheader59.us, !llvm.loop !279

34:                                               ; preds = %3
  call void @_ZNSaIcEC1Ev(ptr noundef nonnull align 1 dereferenceable(1) %5) #27
  invoke void @_ZNSt7__cxx1112basic_stringIcSt11char_traitsIcESaIcEEC1EPKcRKS3_(ptr noundef nonnull align 8 dereferenceable(32) %4, ptr noundef nonnull @.str.55, ptr noundef nonnull align 1 dereferenceable(1) %5)
          to label %35 unwind label %37

35:                                               ; preds = %34
  invoke void @_ZN2cv5errorEiRKNSt7__cxx1112basic_stringIcSt11char_traitsIcESaIcEEEPKcS9_i(i32 noundef -215, ptr noundef nonnull align 8 dereferenceable(32) %4, ptr noundef nonnull @__func__._ZN2cv5arucoL16_getBorderErrorsERKNS_3MatEii, ptr noundef nonnull @.str.1, i32 noundef 396) #28
          to label %36 unwind label %39

36:                                               ; preds = %35
  unreachable

37:                                               ; preds = %34
  %38 = landingpad { ptr, i32 }
          cleanup
  br label %41

39:                                               ; preds = %35
  %40 = landingpad { ptr, i32 }
          cleanup
  call void @_ZNSt7__cxx1112basic_stringIcSt11char_traitsIcESaIcEED1Ev(ptr noundef nonnull align 8 dereferenceable(32) %4) #27
  br label %41

41:                                               ; preds = %39, %37
  %.pn = phi { ptr, i32 } [ %40, %39 ], [ %38, %37 ]
  call void @_ZNSaIcED1Ev(ptr noundef nonnull align 1 dereferenceable(1) %5) #27
  resume { ptr, i32 } %.pn

.preheader58:                                     ; preds = %._crit_edge.us, %.preheader59.lr.ph, %.preheader60
  %.044.lcssa = phi i32 [ 0, %.preheader60 ], [ 0, %.preheader59.lr.ph ], [ %.3.us, %._crit_edge.us ]
  %42 = sub nsw i32 %7, %2
  %43 = icmp sgt i32 %42, %2
  br i1 %43, label %.preheader.lr.ph, label %._crit_edge72

.preheader.lr.ph:                                 ; preds = %.preheader58
  %44 = icmp sgt i32 %2, 0
  %45 = getelementptr inbounds i8, ptr %0, i64 16
  %46 = load ptr, ptr %45, align 8
  br i1 %44, label %.preheader.lr.ph.split.us, label %._crit_edge72

.preheader.lr.ph.split.us:                        ; preds = %.preheader.lr.ph
  %47 = getelementptr inbounds i8, ptr %0, i64 72
  %48 = load ptr, ptr %47, align 8
  %49 = load i64, ptr %48, align 8
  %50 = sext i32 %7 to i64
  %51 = zext nneg i32 %2 to i64
  br label %.preheader.us

.preheader.us:                                    ; preds = %._crit_edge.us74, %.preheader.lr.ph.split.us
  %indvars.iv90 = phi i64 [ %indvars.iv.next91, %._crit_edge.us74 ], [ %51, %.preheader.lr.ph.split.us ]
  %.470.us = phi i32 [ %.7.us, %._crit_edge.us74 ], [ %.044.lcssa, %.preheader.lr.ph.split.us ]
  %invariant.gep.us = getelementptr i8, ptr %46, i64 %indvars.iv90
  br label %52

52:                                               ; preds = %.preheader.us, %52
  %indvars.iv85 = phi i64 [ 0, %.preheader.us ], [ %indvars.iv.next86, %52 ]
  %.566.us = phi i32 [ %.470.us, %.preheader.us ], [ %.7.us, %52 ]
  %53 = mul i64 %49, %indvars.iv85
  %gep.us = getelementptr i8, ptr %invariant.gep.us, i64 %53
  %54 = load i8, ptr %gep.us, align 1
  %.not.us = icmp ne i8 %54, 0
  %55 = zext i1 %.not.us to i32
  %spec.select57.us = add nsw i32 %.566.us, %55
  %56 = xor i64 %indvars.iv85, -1
  %57 = add nsw i64 %50, %56
  %58 = mul i64 %49, %57
  %gep69.us = getelementptr i8, ptr %invariant.gep.us, i64 %58
  %59 = load i8, ptr %gep69.us, align 1
  %.not49.us = icmp ne i8 %59, 0
  %60 = zext i1 %.not49.us to i32
  %.7.us = add nsw i32 %spec.select57.us, %60
  %indvars.iv.next86 = add nuw nsw i64 %indvars.iv85, 1
  %exitcond89.not = icmp eq i64 %indvars.iv.next86, %51
  br i1 %exitcond89.not, label %._crit_edge.us74, label %52, !llvm.loop !280

._crit_edge.us74:                                 ; preds = %52
  %indvars.iv.next91 = add nuw nsw i64 %indvars.iv90, 1
  %61 = trunc nuw i64 %indvars.iv.next91 to i32
  %62 = icmp sgt i32 %42, %61
  br i1 %62, label %.preheader.us, label %._crit_edge72, !llvm.loop !281

._crit_edge72:                                    ; preds = %._crit_edge.us74, %.preheader.lr.ph, %.preheader58
  %.4.lcssa = phi i32 [ %.044.lcssa, %.preheader58 ], [ %.044.lcssa, %.preheader.lr.ph ], [ %.7.us, %._crit_edge.us74 ]
  ret i32 %.4.lcssa
}